
nRF24L01_ATmega640.elf:     file format elf32-avr

Sections:
Idx Name          Size      VMA       LMA       File off  Algn
  0 .data         00000080  00800200  00000858  000008ec  2**0
                  CONTENTS, ALLOC, LOAD, DATA
  1 .text         00000858  00000000  00000000  00000094  2**1
                  CONTENTS, ALLOC, LOAD, READONLY, CODE
  2 .bss          00000001  00800280  00800280  0000096c  2**0
                  ALLOC
  3 .comment      00000030  00000000  00000000  0000096c  2**0
                  CONTENTS, READONLY
  4 .note.gnu.avr.deviceinfo 0000003c  00000000  00000000  0000099c  2**2
                  CONTENTS, READONLY
  5 .debug_aranges 00000220  00000000  00000000  000009d8  2**0
                  CONTENTS, READONLY, DEBUGGING
  6 .debug_info   00002e43  00000000  00000000  00000bf8  2**0
                  CONTENTS, READONLY, DEBUGGING
  7 .debug_abbrev 000014b2  00000000  00000000  00003a3b  2**0
                  CONTENTS, READONLY, DEBUGGING
  8 .debug_line   00001617  00000000  00000000  00004eed  2**0
                  CONTENTS, READONLY, DEBUGGING
  9 .debug_frame  000005b0  00000000  00000000  00006504  2**2
                  CONTENTS, READONLY, DEBUGGING
 10 .debug_str    00000933  00000000  00000000  00006ab4  2**0
                  CONTENTS, READONLY, DEBUGGING
 11 .debug_loc    0000200c  00000000  00000000  000073e7  2**0
                  CONTENTS, READONLY, DEBUGGING
 12 .debug_ranges 00000258  00000000  00000000  000093f3  2**0
                  CONTENTS, READONLY, DEBUGGING

Disassembly of section .text:

00000000 <__vectors>:
   0:	0c 94 72 00 	jmp	0xe4	; 0xe4 <__ctors_end>
   4:	0c 94 f9 02 	jmp	0x5f2	; 0x5f2 <__vector_1>
   8:	0c 94 8f 00 	jmp	0x11e	; 0x11e <__bad_interrupt>
   c:	0c 94 8f 00 	jmp	0x11e	; 0x11e <__bad_interrupt>
  10:	0c 94 8f 00 	jmp	0x11e	; 0x11e <__bad_interrupt>
  14:	0c 94 8f 00 	jmp	0x11e	; 0x11e <__bad_interrupt>
  18:	0c 94 8f 00 	jmp	0x11e	; 0x11e <__bad_interrupt>
  1c:	0c 94 8f 00 	jmp	0x11e	; 0x11e <__bad_interrupt>
  20:	0c 94 8f 00 	jmp	0x11e	; 0x11e <__bad_interrupt>
  24:	0c 94 8f 00 	jmp	0x11e	; 0x11e <__bad_interrupt>
  28:	0c 94 8f 00 	jmp	0x11e	; 0x11e <__bad_interrupt>
  2c:	0c 94 8f 00 	jmp	0x11e	; 0x11e <__bad_interrupt>
  30:	0c 94 8f 00 	jmp	0x11e	; 0x11e <__bad_interrupt>
  34:	0c 94 8f 00 	jmp	0x11e	; 0x11e <__bad_interrupt>
  38:	0c 94 8f 00 	jmp	0x11e	; 0x11e <__bad_interrupt>
  3c:	0c 94 8f 00 	jmp	0x11e	; 0x11e <__bad_interrupt>
  40:	0c 94 8f 00 	jmp	0x11e	; 0x11e <__bad_interrupt>
  44:	0c 94 8f 00 	jmp	0x11e	; 0x11e <__bad_interrupt>
  48:	0c 94 8f 00 	jmp	0x11e	; 0x11e <__bad_interrupt>
  4c:	0c 94 8f 00 	jmp	0x11e	; 0x11e <__bad_interrupt>
  50:	0c 94 8f 00 	jmp	0x11e	; 0x11e <__bad_interrupt>
  54:	0c 94 8f 00 	jmp	0x11e	; 0x11e <__bad_interrupt>
  58:	0c 94 8f 00 	jmp	0x11e	; 0x11e <__bad_interrupt>
  5c:	0c 94 8f 00 	jmp	0x11e	; 0x11e <__bad_interrupt>
  60:	0c 94 8f 00 	jmp	0x11e	; 0x11e <__bad_interrupt>
  64:	0c 94 8f 00 	jmp	0x11e	; 0x11e <__bad_interrupt>
  68:	0c 94 8f 00 	jmp	0x11e	; 0x11e <__bad_interrupt>
  6c:	0c 94 8f 00 	jmp	0x11e	; 0x11e <__bad_interrupt>
  70:	0c 94 8f 00 	jmp	0x11e	; 0x11e <__bad_interrupt>
  74:	0c 94 8f 00 	jmp	0x11e	; 0x11e <__bad_interrupt>
  78:	0c 94 8f 00 	jmp	0x11e	; 0x11e <__bad_interrupt>
  7c:	0c 94 8f 00 	jmp	0x11e	; 0x11e <__bad_interrupt>
  80:	0c 94 8f 00 	jmp	0x11e	; 0x11e <__bad_interrupt>
  84:	0c 94 8f 00 	jmp	0x11e	; 0x11e <__bad_interrupt>
  88:	0c 94 8f 00 	jmp	0x11e	; 0x11e <__bad_interrupt>
  8c:	0c 94 8f 00 	jmp	0x11e	; 0x11e <__bad_interrupt>
  90:	0c 94 8f 00 	jmp	0x11e	; 0x11e <__bad_interrupt>
  94:	0c 94 8f 00 	jmp	0x11e	; 0x11e <__bad_interrupt>
  98:	0c 94 8f 00 	jmp	0x11e	; 0x11e <__bad_interrupt>
  9c:	0c 94 8f 00 	jmp	0x11e	; 0x11e <__bad_interrupt>
  a0:	0c 94 8f 00 	jmp	0x11e	; 0x11e <__bad_interrupt>
  a4:	0c 94 8f 00 	jmp	0x11e	; 0x11e <__bad_interrupt>
  a8:	0c 94 8f 00 	jmp	0x11e	; 0x11e <__bad_interrupt>
  ac:	0c 94 8f 00 	jmp	0x11e	; 0x11e <__bad_interrupt>
  b0:	0c 94 8f 00 	jmp	0x11e	; 0x11e <__bad_interrupt>
  b4:	0c 94 8f 00 	jmp	0x11e	; 0x11e <__bad_interrupt>
  b8:	0c 94 8f 00 	jmp	0x11e	; 0x11e <__bad_interrupt>
  bc:	0c 94 8f 00 	jmp	0x11e	; 0x11e <__bad_interrupt>
  c0:	0c 94 8f 00 	jmp	0x11e	; 0x11e <__bad_interrupt>
  c4:	0c 94 8f 00 	jmp	0x11e	; 0x11e <__bad_interrupt>
  c8:	0c 94 8f 00 	jmp	0x11e	; 0x11e <__bad_interrupt>
  cc:	0c 94 8f 00 	jmp	0x11e	; 0x11e <__bad_interrupt>
  d0:	0c 94 8f 00 	jmp	0x11e	; 0x11e <__bad_interrupt>
  d4:	0c 94 8f 00 	jmp	0x11e	; 0x11e <__bad_interrupt>
  d8:	0c 94 8f 00 	jmp	0x11e	; 0x11e <__bad_interrupt>
  dc:	0c 94 8f 00 	jmp	0x11e	; 0x11e <__bad_interrupt>
  e0:	0c 94 8f 00 	jmp	0x11e	; 0x11e <__bad_interrupt>

000000e4 <__ctors_end>:
  e4:	11 24       	eor	r1, r1
  e6:	1f be       	out	0x3f, r1	; 63
  e8:	cf ef       	ldi	r28, 0xFF	; 255
  ea:	d1 e2       	ldi	r29, 0x21	; 33
  ec:	de bf       	out	0x3e, r29	; 62
  ee:	cd bf       	out	0x3d, r28	; 61

000000f0 <__do_copy_data>:
  f0:	12 e0       	ldi	r17, 0x02	; 2
  f2:	a0 e0       	ldi	r26, 0x00	; 0
  f4:	b2 e0       	ldi	r27, 0x02	; 2
  f6:	e8 e5       	ldi	r30, 0x58	; 88
  f8:	f8 e0       	ldi	r31, 0x08	; 8
  fa:	02 c0       	rjmp	.+4      	; 0x100 <__do_copy_data+0x10>
  fc:	05 90       	lpm	r0, Z+
  fe:	0d 92       	st	X+, r0
 100:	a0 38       	cpi	r26, 0x80	; 128
 102:	b1 07       	cpc	r27, r17
 104:	d9 f7       	brne	.-10     	; 0xfc <__do_copy_data+0xc>

00000106 <__do_clear_bss>:
 106:	22 e0       	ldi	r18, 0x02	; 2
 108:	a0 e8       	ldi	r26, 0x80	; 128
 10a:	b2 e0       	ldi	r27, 0x02	; 2
 10c:	01 c0       	rjmp	.+2      	; 0x110 <.do_clear_bss_start>

0000010e <.do_clear_bss_loop>:
 10e:	1d 92       	st	X+, r1

00000110 <.do_clear_bss_start>:
 110:	a1 38       	cpi	r26, 0x81	; 129
 112:	b2 07       	cpc	r27, r18
 114:	e1 f7       	brne	.-8      	; 0x10e <.do_clear_bss_loop>
 116:	0e 94 f2 01 	call	0x3e4	; 0x3e4 <main>
 11a:	0c 94 2a 04 	jmp	0x854	; 0x854 <_exit>

0000011e <__bad_interrupt>:
 11e:	0c 94 00 00 	jmp	0	; 0x0 <__vectors>

00000122 <setup_ports>:


void setup_ports()
{
	// LEDs
	DDRL |= (1<<LED1) | (1<<LED2) | (1<<LED3) | (1<<LED4) | (1<<LED5) | (1<<LED6); // set LEDs as outputs
 122:	ea e0       	ldi	r30, 0x0A	; 10
 124:	f1 e0       	ldi	r31, 0x01	; 1
 126:	80 81       	ld	r24, Z
 128:	8f 63       	ori	r24, 0x3F	; 63
 12a:	80 83       	st	Z, r24
 12c:	08 95       	ret

0000012e <LED_check>:

}

void LED_check()
{
 12e:	23 e0       	ldi	r18, 0x03	; 3
 130:	30 e0       	ldi	r19, 0x00	; 0
	int i;
	
	for (i=0; i<3; i++)
	{
		LED1_ON;
 132:	eb e0       	ldi	r30, 0x0B	; 11
 134:	f1 e0       	ldi	r31, 0x01	; 1
 136:	80 81       	ld	r24, Z
 138:	81 60       	ori	r24, 0x01	; 1
 13a:	80 83       	st	Z, r24
	#else
		//round up by default
		__ticks_dc = (uint32_t)(ceil(fabs(__tmp)));
	#endif

	__builtin_avr_delay_cycles(__ticks_dc);
 13c:	8f e3       	ldi	r24, 0x3F	; 63
 13e:	9c e9       	ldi	r25, 0x9C	; 156
 140:	01 97       	sbiw	r24, 0x01	; 1
 142:	f1 f7       	brne	.-4      	; 0x140 <LED_check+0x12>
 144:	00 c0       	rjmp	.+0      	; 0x146 <LED_check+0x18>
 146:	00 00       	nop
		_delay_ms(LED_check_DELAY);
		LED1_OFF;
 148:	80 81       	ld	r24, Z
 14a:	8e 7f       	andi	r24, 0xFE	; 254
 14c:	80 83       	st	Z, r24
		LED2_ON;
 14e:	80 81       	ld	r24, Z
 150:	82 60       	ori	r24, 0x02	; 2
 152:	80 83       	st	Z, r24
 154:	8f e3       	ldi	r24, 0x3F	; 63
 156:	9c e9       	ldi	r25, 0x9C	; 156
 158:	01 97       	sbiw	r24, 0x01	; 1
 15a:	f1 f7       	brne	.-4      	; 0x158 <LED_check+0x2a>
 15c:	00 c0       	rjmp	.+0      	; 0x15e <LED_check+0x30>
 15e:	00 00       	nop
		_delay_ms(LED_check_DELAY);
		LED2_OFF;
 160:	80 81       	ld	r24, Z
 162:	8d 7f       	andi	r24, 0xFD	; 253
 164:	80 83       	st	Z, r24
		LED3_ON;
 166:	80 81       	ld	r24, Z
 168:	84 60       	ori	r24, 0x04	; 4
 16a:	80 83       	st	Z, r24
 16c:	8f e3       	ldi	r24, 0x3F	; 63
 16e:	9c e9       	ldi	r25, 0x9C	; 156
 170:	01 97       	sbiw	r24, 0x01	; 1
 172:	f1 f7       	brne	.-4      	; 0x170 <LED_check+0x42>
 174:	00 c0       	rjmp	.+0      	; 0x176 <LED_check+0x48>
 176:	00 00       	nop
		_delay_ms(LED_check_DELAY);
		LED3_OFF;
 178:	80 81       	ld	r24, Z
 17a:	8b 7f       	andi	r24, 0xFB	; 251
 17c:	80 83       	st	Z, r24
		LED4_ON;
 17e:	80 81       	ld	r24, Z
 180:	88 60       	ori	r24, 0x08	; 8
 182:	80 83       	st	Z, r24
 184:	8f e3       	ldi	r24, 0x3F	; 63
 186:	9c e9       	ldi	r25, 0x9C	; 156
 188:	01 97       	sbiw	r24, 0x01	; 1
 18a:	f1 f7       	brne	.-4      	; 0x188 <LED_check+0x5a>
 18c:	00 c0       	rjmp	.+0      	; 0x18e <LED_check+0x60>
 18e:	00 00       	nop
		_delay_ms(LED_check_DELAY);
		LED4_OFF;
 190:	80 81       	ld	r24, Z
 192:	87 7f       	andi	r24, 0xF7	; 247
 194:	80 83       	st	Z, r24
		LED5_ON;
 196:	80 81       	ld	r24, Z
 198:	80 61       	ori	r24, 0x10	; 16
 19a:	80 83       	st	Z, r24
 19c:	8f e3       	ldi	r24, 0x3F	; 63
 19e:	9c e9       	ldi	r25, 0x9C	; 156
 1a0:	01 97       	sbiw	r24, 0x01	; 1
 1a2:	f1 f7       	brne	.-4      	; 0x1a0 <LED_check+0x72>
 1a4:	00 c0       	rjmp	.+0      	; 0x1a6 <LED_check+0x78>
 1a6:	00 00       	nop
		_delay_ms(LED_check_DELAY);
		LED5_OFF;
 1a8:	80 81       	ld	r24, Z
 1aa:	8f 7e       	andi	r24, 0xEF	; 239
 1ac:	80 83       	st	Z, r24
		LED6_ON;
 1ae:	80 81       	ld	r24, Z
 1b0:	80 62       	ori	r24, 0x20	; 32
 1b2:	80 83       	st	Z, r24
 1b4:	8f e3       	ldi	r24, 0x3F	; 63
 1b6:	9c e9       	ldi	r25, 0x9C	; 156
 1b8:	01 97       	sbiw	r24, 0x01	; 1
 1ba:	f1 f7       	brne	.-4      	; 0x1b8 <LED_check+0x8a>
 1bc:	00 c0       	rjmp	.+0      	; 0x1be <LED_check+0x90>
 1be:	00 00       	nop
 1c0:	8f e3       	ldi	r24, 0x3F	; 63
 1c2:	9c e9       	ldi	r25, 0x9C	; 156
 1c4:	01 97       	sbiw	r24, 0x01	; 1
 1c6:	f1 f7       	brne	.-4      	; 0x1c4 <LED_check+0x96>
 1c8:	00 c0       	rjmp	.+0      	; 0x1ca <LED_check+0x9c>
 1ca:	00 00       	nop
		_delay_ms(LED_check_DELAY);
		
		_delay_ms(LED_check_DELAY);
		LED6_OFF;
 1cc:	80 81       	ld	r24, Z
 1ce:	8f 7d       	andi	r24, 0xDF	; 223
 1d0:	80 83       	st	Z, r24
		LED5_ON;
 1d2:	80 81       	ld	r24, Z
 1d4:	80 61       	ori	r24, 0x10	; 16
 1d6:	80 83       	st	Z, r24
 1d8:	8f e3       	ldi	r24, 0x3F	; 63
 1da:	9c e9       	ldi	r25, 0x9C	; 156
 1dc:	01 97       	sbiw	r24, 0x01	; 1
 1de:	f1 f7       	brne	.-4      	; 0x1dc <LED_check+0xae>
 1e0:	00 c0       	rjmp	.+0      	; 0x1e2 <LED_check+0xb4>
 1e2:	00 00       	nop
		_delay_ms(LED_check_DELAY);
		LED5_OFF;
 1e4:	80 81       	ld	r24, Z
 1e6:	8f 7e       	andi	r24, 0xEF	; 239
 1e8:	80 83       	st	Z, r24
		LED4_ON;
 1ea:	80 81       	ld	r24, Z
 1ec:	88 60       	ori	r24, 0x08	; 8
 1ee:	80 83       	st	Z, r24
 1f0:	8f e3       	ldi	r24, 0x3F	; 63
 1f2:	9c e9       	ldi	r25, 0x9C	; 156
 1f4:	01 97       	sbiw	r24, 0x01	; 1
 1f6:	f1 f7       	brne	.-4      	; 0x1f4 <LED_check+0xc6>
 1f8:	00 c0       	rjmp	.+0      	; 0x1fa <LED_check+0xcc>
 1fa:	00 00       	nop
		_delay_ms(LED_check_DELAY);
		LED4_OFF;
 1fc:	80 81       	ld	r24, Z
 1fe:	87 7f       	andi	r24, 0xF7	; 247
 200:	80 83       	st	Z, r24
		LED3_ON;
 202:	80 81       	ld	r24, Z
 204:	84 60       	ori	r24, 0x04	; 4
 206:	80 83       	st	Z, r24
 208:	8f e3       	ldi	r24, 0x3F	; 63
 20a:	9c e9       	ldi	r25, 0x9C	; 156
 20c:	01 97       	sbiw	r24, 0x01	; 1
 20e:	f1 f7       	brne	.-4      	; 0x20c <LED_check+0xde>
 210:	00 c0       	rjmp	.+0      	; 0x212 <LED_check+0xe4>
 212:	00 00       	nop
		_delay_ms(LED_check_DELAY);
		LED3_OFF;
 214:	80 81       	ld	r24, Z
 216:	8b 7f       	andi	r24, 0xFB	; 251
 218:	80 83       	st	Z, r24
		LED2_ON;
 21a:	80 81       	ld	r24, Z
 21c:	82 60       	ori	r24, 0x02	; 2
 21e:	80 83       	st	Z, r24
 220:	8f e3       	ldi	r24, 0x3F	; 63
 222:	9c e9       	ldi	r25, 0x9C	; 156
 224:	01 97       	sbiw	r24, 0x01	; 1
 226:	f1 f7       	brne	.-4      	; 0x224 <LED_check+0xf6>
 228:	00 c0       	rjmp	.+0      	; 0x22a <LED_check+0xfc>
 22a:	00 00       	nop
		_delay_ms(LED_check_DELAY);
		LED2_OFF;
 22c:	80 81       	ld	r24, Z
 22e:	8d 7f       	andi	r24, 0xFD	; 253
 230:	80 83       	st	Z, r24
		LED1_ON;
 232:	80 81       	ld	r24, Z
 234:	81 60       	ori	r24, 0x01	; 1
 236:	80 83       	st	Z, r24
 238:	8f e3       	ldi	r24, 0x3F	; 63
 23a:	9c e9       	ldi	r25, 0x9C	; 156
 23c:	01 97       	sbiw	r24, 0x01	; 1
 23e:	f1 f7       	brne	.-4      	; 0x23c <LED_check+0x10e>
 240:	00 c0       	rjmp	.+0      	; 0x242 <LED_check+0x114>
 242:	00 00       	nop
		_delay_ms(LED_check_DELAY);
		LED1_OFF;
 244:	80 81       	ld	r24, Z
 246:	8e 7f       	andi	r24, 0xFE	; 254
 248:	80 83       	st	Z, r24
 24a:	21 50       	subi	r18, 0x01	; 1
 24c:	31 09       	sbc	r19, r1

void LED_check()
{
	int i;
	
	for (i=0; i<3; i++)
 24e:	09 f0       	breq	.+2      	; 0x252 <LED_check+0x124>
 250:	72 cf       	rjmp	.-284    	; 0x136 <LED_check+0x8>
		LED1_ON;
		_delay_ms(LED_check_DELAY);
		LED1_OFF;
	}

 252:	08 95       	ret

00000254 <data_to_port>:


void data_to_port(char data)
{
	// DB0
	if ( (data >> 0)&(0x01) )
 254:	80 ff       	sbrs	r24, 0
 256:	02 c0       	rjmp	.+4      	; 0x25c <data_to_port+0x8>
		PORTC |= (1<<DB0);
 258:	43 9a       	sbi	0x08, 3	; 8
 25a:	01 c0       	rjmp	.+2      	; 0x25e <data_to_port+0xa>
	else
		PORTC &= ~(1<<DB0);
 25c:	43 98       	cbi	0x08, 3	; 8
	// DB1
	if ( (data >> 1)&(0x01) )
 25e:	81 ff       	sbrs	r24, 1
 260:	02 c0       	rjmp	.+4      	; 0x266 <data_to_port+0x12>
		PORTC |= (1<<DB1);
 262:	44 9a       	sbi	0x08, 4	; 8
 264:	01 c0       	rjmp	.+2      	; 0x268 <data_to_port+0x14>
	else
		PORTC &= ~(1<<DB1);
 266:	44 98       	cbi	0x08, 4	; 8
	// DB2
	if ( (data >> 2)&(0x01) )
 268:	82 ff       	sbrs	r24, 2
 26a:	02 c0       	rjmp	.+4      	; 0x270 <data_to_port+0x1c>
		PORTC |= (1<<DB2);
 26c:	45 9a       	sbi	0x08, 5	; 8
 26e:	01 c0       	rjmp	.+2      	; 0x272 <data_to_port+0x1e>
	else
		PORTC &= ~(1<<DB2);
 270:	45 98       	cbi	0x08, 5	; 8
	// DB3
	if ( (data >> 3)&(0x01) )
 272:	83 ff       	sbrs	r24, 3
 274:	02 c0       	rjmp	.+4      	; 0x27a <data_to_port+0x26>
		PORTC |= (1<<DB3);
 276:	46 9a       	sbi	0x08, 6	; 8
 278:	01 c0       	rjmp	.+2      	; 0x27c <data_to_port+0x28>
	else
		PORTC &= ~(1<<DB3);
 27a:	46 98       	cbi	0x08, 6	; 8
	// DB4
	if ( (data >> 4)&(0x01) )
 27c:	84 ff       	sbrs	r24, 4
 27e:	02 c0       	rjmp	.+4      	; 0x284 <data_to_port+0x30>
		PORTC |= (1<<DB4);
 280:	47 9a       	sbi	0x08, 7	; 8
 282:	01 c0       	rjmp	.+2      	; 0x286 <data_to_port+0x32>
	else
		PORTC &= ~(1<<DB4);
 284:	47 98       	cbi	0x08, 7	; 8
	// DB5
	if ( (data >> 5)&(0x01) )
 286:	85 ff       	sbrs	r24, 5
 288:	02 c0       	rjmp	.+4      	; 0x28e <data_to_port+0x3a>
		PORTG |= (1<<DB5);
 28a:	a0 9a       	sbi	0x14, 0	; 20
 28c:	01 c0       	rjmp	.+2      	; 0x290 <data_to_port+0x3c>
	else
		PORTG &= ~(1<<DB5);
 28e:	a0 98       	cbi	0x14, 0	; 20
	// DB6
	if ( (data >> 6)&(0x01) )
 290:	86 ff       	sbrs	r24, 6
 292:	02 c0       	rjmp	.+4      	; 0x298 <data_to_port+0x44>
		PORTG |= (1<<DB6);
 294:	a1 9a       	sbi	0x14, 1	; 20
 296:	01 c0       	rjmp	.+2      	; 0x29a <data_to_port+0x46>
	else
		PORTG &= ~(1<<DB6);
 298:	a1 98       	cbi	0x14, 1	; 20
	// DB7
	if ( (data >> 7)&(0x01) )
 29a:	88 23       	and	r24, r24
 29c:	14 f4       	brge	.+4      	; 0x2a2 <data_to_port+0x4e>
		PORTD |= (1<<DB7);
 29e:	5f 9a       	sbi	0x0b, 7	; 11
 2a0:	08 95       	ret
	else
		PORTD &= ~(1<<DB7);
 2a2:	5f 98       	cbi	0x0b, 7	; 11
 2a4:	08 95       	ret

000002a6 <lcd_send_cmd>:
	
}

void lcd_send_cmd(char cmd)
{
	data_to_port(cmd); //put data on PORT
 2a6:	0e 94 2a 01 	call	0x254	; 0x254 <data_to_port>
	
	RS_LOW; // send command
 2aa:	42 98       	cbi	0x08, 2	; 8
	RW_LOW; // write operation
 2ac:	41 98       	cbi	0x08, 1	; 8
		
	// enable pulse
	E_HIGH;
 2ae:	40 9a       	sbi	0x08, 0	; 8
	#else
		//round up by default
		__ticks_dc = (uint32_t)(ceil(fabs(__tmp)));
	#endif

	__builtin_avr_delay_cycles(__ticks_dc);
 2b0:	8f e8       	ldi	r24, 0x8F	; 143
 2b2:	91 e0       	ldi	r25, 0x01	; 1
 2b4:	01 97       	sbiw	r24, 0x01	; 1
 2b6:	f1 f7       	brne	.-4      	; 0x2b4 <lcd_send_cmd+0xe>
 2b8:	00 c0       	rjmp	.+0      	; 0x2ba <lcd_send_cmd+0x14>
 2ba:	00 00       	nop
		_delay_us(100); 
	E_LOW;
 2bc:	40 98       	cbi	0x08, 0	; 8
 2be:	08 95       	ret

000002c0 <setup_lcd>:
#include <avr/io.h>

void setup_lcd()
{	
	// PORT setup
	DDRC |= (1<<RS)  | (1<<RW)  | (1<<E) | (1<<DB0) | (1<<DB1) | (1<<DB2) | (1<<DB3) | (1<<DB4) ;
 2c0:	87 b1       	in	r24, 0x07	; 7
 2c2:	8f ef       	ldi	r24, 0xFF	; 255
 2c4:	87 b9       	out	0x07, r24	; 7
	DDRG |= (1<<DB5) | (1<<DB6);
 2c6:	83 b3       	in	r24, 0x13	; 19
 2c8:	83 60       	ori	r24, 0x03	; 3
 2ca:	83 bb       	out	0x13, r24	; 19
	DDRD |= (1<<DB7);
 2cc:	57 9a       	sbi	0x0a, 7	; 10
	
	
	E_LOW;
 2ce:	40 98       	cbi	0x08, 0	; 8
	#else
		//round up by default
		__ticks_dc = (uint32_t)(ceil(fabs(__tmp)));
	#endif

	__builtin_avr_delay_cycles(__ticks_dc);
 2d0:	2f ef       	ldi	r18, 0xFF	; 255
 2d2:	83 ed       	ldi	r24, 0xD3	; 211
 2d4:	90 e3       	ldi	r25, 0x30	; 48
 2d6:	21 50       	subi	r18, 0x01	; 1
 2d8:	80 40       	sbci	r24, 0x00	; 0
 2da:	90 40       	sbci	r25, 0x00	; 0
 2dc:	e1 f7       	brne	.-8      	; 0x2d6 <setup_lcd+0x16>
 2de:	00 c0       	rjmp	.+0      	; 0x2e0 <setup_lcd+0x20>
 2e0:	00 00       	nop
		_delay_ms(1000); // at least 40 ms
	
	lcd_send_cmd(WAKE_UP);
 2e2:	80 e3       	ldi	r24, 0x30	; 48
 2e4:	0e 94 53 01 	call	0x2a6	; 0x2a6 <lcd_send_cmd>
 2e8:	8f e3       	ldi	r24, 0x3F	; 63
 2ea:	9c e9       	ldi	r25, 0x9C	; 156
 2ec:	01 97       	sbiw	r24, 0x01	; 1
 2ee:	f1 f7       	brne	.-4      	; 0x2ec <setup_lcd+0x2c>
 2f0:	00 c0       	rjmp	.+0      	; 0x2f2 <setup_lcd+0x32>
 2f2:	00 00       	nop
	_delay_ms(10); // at least 5 ms
		
	lcd_send_cmd(MODE_8_BIT | MODE_2_LINE); // 8-bit mode, 2-line mode
 2f4:	88 e3       	ldi	r24, 0x38	; 56
 2f6:	0e 94 53 01 	call	0x2a6	; 0x2a6 <lcd_send_cmd>
	lcd_send_cmd(0x10); // set cursor
 2fa:	80 e1       	ldi	r24, 0x10	; 16
 2fc:	0e 94 53 01 	call	0x2a6	; 0x2a6 <lcd_send_cmd>
	lcd_send_cmd(DISPLAY_ON); // turn on entire display, cursor is on
 300:	8c e0       	ldi	r24, 0x0C	; 12
 302:	0e 94 53 01 	call	0x2a6	; 0x2a6 <lcd_send_cmd>
	lcd_send_cmd(CLEAR_DISPLAY);
 306:	81 e0       	ldi	r24, 0x01	; 1
 308:	0e 94 53 01 	call	0x2a6	; 0x2a6 <lcd_send_cmd>
	lcd_send_cmd(INCREMENT_CURSOR); // cursor automatically increments after a character is written
 30c:	86 e0       	ldi	r24, 0x06	; 6
 30e:	0e 94 53 01 	call	0x2a6	; 0x2a6 <lcd_send_cmd>
 312:	08 95       	ret

00000314 <lcd_send_data>:
	E_LOW;
}

void lcd_send_data(char data)
{
	data_to_port(data); //put data on PORT
 314:	0e 94 2a 01 	call	0x254	; 0x254 <data_to_port>

	RS_HIGH; // send data
 318:	42 9a       	sbi	0x08, 2	; 8
	RW_LOW; // write operation
 31a:	41 98       	cbi	0x08, 1	; 8

	// enable pulse
	E_HIGH;
 31c:	40 9a       	sbi	0x08, 0	; 8
	#else
		//round up by default
		__ticks_dc = (uint32_t)(ceil(fabs(__tmp)));
	#endif

	__builtin_avr_delay_cycles(__ticks_dc);
 31e:	8f e8       	ldi	r24, 0x8F	; 143
 320:	91 e0       	ldi	r25, 0x01	; 1
 322:	01 97       	sbiw	r24, 0x01	; 1
 324:	f1 f7       	brne	.-4      	; 0x322 <lcd_send_data+0xe>
 326:	00 c0       	rjmp	.+0      	; 0x328 <lcd_send_data+0x14>
 328:	00 00       	nop
		_delay_us(100);
	E_LOW;	
 32a:	40 98       	cbi	0x08, 0	; 8
 32c:	08 95       	ret

0000032e <lcd_set_cursor>:
	else
		PORTD &= ~(1<<DB7);
}

void lcd_set_cursor(char row, char column)
{
 32e:	cf 93       	push	r28
 330:	df 93       	push	r29
 332:	00 d0       	rcall	.+0      	; 0x334 <lcd_set_cursor+0x6>
 334:	cd b7       	in	r28, 0x3d	; 61
 336:	de b7       	in	r29, 0x3e	; 62
	unsigned char address[2] = {LINE_1, LINE_2};
 338:	90 e8       	ldi	r25, 0x80	; 128
 33a:	99 83       	std	Y+1, r25	; 0x01
 33c:	90 ec       	ldi	r25, 0xC0	; 192
 33e:	9a 83       	std	Y+2, r25	; 0x02
	lcd_send_cmd(address[row-1] + (column-1));
 340:	fe 01       	movw	r30, r28
 342:	e8 0f       	add	r30, r24
 344:	f1 1d       	adc	r31, r1
 346:	61 50       	subi	r22, 0x01	; 1
 348:	80 81       	ld	r24, Z
 34a:	86 0f       	add	r24, r22
 34c:	0e 94 53 01 	call	0x2a6	; 0x2a6 <lcd_send_cmd>
 350:	8f e8       	ldi	r24, 0x8F	; 143
 352:	91 e0       	ldi	r25, 0x01	; 1
 354:	01 97       	sbiw	r24, 0x01	; 1
 356:	f1 f7       	brne	.-4      	; 0x354 <lcd_set_cursor+0x26>
 358:	00 c0       	rjmp	.+0      	; 0x35a <lcd_set_cursor+0x2c>
 35a:	00 00       	nop
	_delay_us(100);
}
 35c:	0f 90       	pop	r0
 35e:	0f 90       	pop	r0
 360:	df 91       	pop	r29
 362:	cf 91       	pop	r28
 364:	08 95       	ret

00000366 <lcd_print>:

void lcd_print(char *str)
{
 366:	0f 93       	push	r16
 368:	1f 93       	push	r17
 36a:	cf 93       	push	r28
 36c:	fc 01       	movw	r30, r24
	unsigned char i =0;
	while(str[i] != 0)
 36e:	80 81       	ld	r24, Z
 370:	88 23       	and	r24, r24
 372:	59 f0       	breq	.+22     	; 0x38a <lcd_print+0x24>
 374:	8f 01       	movw	r16, r30
 376:	c0 e0       	ldi	r28, 0x00	; 0
	{
		lcd_send_data(str[i]);
 378:	0e 94 8a 01 	call	0x314	; 0x314 <lcd_send_data>
		i++;
 37c:	cf 5f       	subi	r28, 0xFF	; 255
}

void lcd_print(char *str)
{
	unsigned char i =0;
	while(str[i] != 0)
 37e:	f8 01       	movw	r30, r16
 380:	ec 0f       	add	r30, r28
 382:	f1 1d       	adc	r31, r1
 384:	80 81       	ld	r24, Z
 386:	81 11       	cpse	r24, r1
 388:	f7 cf       	rjmp	.-18     	; 0x378 <lcd_print+0x12>
	{
		lcd_send_data(str[i]);
		i++;
	}
}
 38a:	cf 91       	pop	r28
 38c:	1f 91       	pop	r17
 38e:	0f 91       	pop	r16
 390:	08 95       	ret

00000392 <lcd_print_int>:

void lcd_print_int(int number)
{
 392:	cf 93       	push	r28
 394:	df 93       	push	r29
 396:	cd b7       	in	r28, 0x3d	; 61
 398:	de b7       	in	r29, 0x3e	; 62
 39a:	60 97       	sbiw	r28, 0x10	; 16
 39c:	0f b6       	in	r0, 0x3f	; 63
 39e:	f8 94       	cli
 3a0:	de bf       	out	0x3e, r29	; 62
 3a2:	0f be       	out	0x3f, r0	; 63
 3a4:	cd bf       	out	0x3d, r28	; 61
 3a6:	fc 01       	movw	r30, r24
	int temp = number;
	int num_digit = 0;
	
	while (temp != 0)
 3a8:	00 97       	sbiw	r24, 0x00	; 0
 3aa:	41 f0       	breq	.+16     	; 0x3bc <lcd_print_int+0x2a>
	{
		temp = temp /10;
 3ac:	2a e0       	ldi	r18, 0x0A	; 10
 3ae:	30 e0       	ldi	r19, 0x00	; 0
 3b0:	b9 01       	movw	r22, r18
 3b2:	0e 94 cd 03 	call	0x79a	; 0x79a <__divmodhi4>
 3b6:	cb 01       	movw	r24, r22
void lcd_print_int(int number)
{
	int temp = number;
	int num_digit = 0;
	
	while (temp != 0)
 3b8:	00 97       	sbiw	r24, 0x00	; 0
 3ba:	d1 f7       	brne	.-12     	; 0x3b0 <lcd_print_int+0x1e>
    } else if (__radix < 2 || __radix > 36) {
	*__s = 0;
	return __s;
    } else {
	extern char *__itoa_ncheck (int, char *, unsigned char);
	return __itoa_ncheck (__val, __s, __radix);
 3bc:	4a e0       	ldi	r20, 0x0A	; 10
 3be:	be 01       	movw	r22, r28
 3c0:	6f 5f       	subi	r22, 0xFF	; 255
 3c2:	7f 4f       	sbci	r23, 0xFF	; 255
 3c4:	cf 01       	movw	r24, r30
 3c6:	0e 94 f5 03 	call	0x7ea	; 0x7ea <__itoa_ncheck>
	}
	if (number<0) num_digit++;
	char char_array[MAX_LCD_STRING_SIZE];
	itoa(number, char_array,10);

	lcd_print(char_array);
 3ca:	ce 01       	movw	r24, r28
 3cc:	01 96       	adiw	r24, 0x01	; 1
 3ce:	0e 94 b3 01 	call	0x366	; 0x366 <lcd_print>
}
 3d2:	60 96       	adiw	r28, 0x10	; 16
 3d4:	0f b6       	in	r0, 0x3f	; 63
 3d6:	f8 94       	cli
 3d8:	de bf       	out	0x3e, r29	; 62
 3da:	0f be       	out	0x3f, r0	; 63
 3dc:	cd bf       	out	0x3d, r28	; 61
 3de:	df 91       	pop	r29
 3e0:	cf 91       	pop	r28
 3e2:	08 95       	ret

000003e4 <main>:

uint8_t status = 0;

int main(void)
{
	setup_ports();
 3e4:	0e 94 91 00 	call	0x122	; 0x122 <setup_ports>
	setup_lcd();
 3e8:	0e 94 60 01 	call	0x2c0	; 0x2c0 <setup_lcd>
	#else
		//round up by default
		__ticks_dc = (uint32_t)(ceil(fabs(__tmp)));
	#endif

	__builtin_avr_delay_cycles(__ticks_dc);
 3ec:	8f e3       	ldi	r24, 0x3F	; 63
 3ee:	9c e9       	ldi	r25, 0x9C	; 156
 3f0:	01 97       	sbiw	r24, 0x01	; 1
 3f2:	f1 f7       	brne	.-4      	; 0x3f0 <main+0xc>
 3f4:	00 c0       	rjmp	.+0      	; 0x3f6 <main+0x12>
 3f6:	00 00       	nop
	_delay_ms(10);
	lcd_set_cursor(1,1);
 3f8:	61 e0       	ldi	r22, 0x01	; 1
 3fa:	81 e0       	ldi	r24, 0x01	; 1
 3fc:	0e 94 97 01 	call	0x32e	; 0x32e <lcd_set_cursor>
	lcd_print("Initializing...");
 400:	80 e1       	ldi	r24, 0x10	; 16
 402:	92 e0       	ldi	r25, 0x02	; 2
 404:	0e 94 b3 01 	call	0x366	; 0x366 <lcd_print>
 408:	8f ed       	ldi	r24, 0xDF	; 223
 40a:	9e e2       	ldi	r25, 0x2E	; 46
 40c:	01 97       	sbiw	r24, 0x01	; 1
 40e:	f1 f7       	brne	.-4      	; 0x40c <__LOCK_REGION_LENGTH__+0xc>
 410:	00 c0       	rjmp	.+0      	; 0x412 <__LOCK_REGION_LENGTH__+0x12>
 412:	00 00       	nop
	_delay_ms(3);
	setup_usart0(BR_9600); // for FTDI debugging (terminal)
 414:	87 e6       	ldi	r24, 0x67	; 103
 416:	0e 94 c4 03 	call	0x788	; 0x788 <setup_usart0>
	mirf_init();
 41a:	0e 94 a7 02 	call	0x54e	; 0x54e <mirf_init>
 41e:	9f ef       	ldi	r25, 0xFF	; 255
 420:	27 ea       	ldi	r18, 0xA7	; 167
 422:	81 e6       	ldi	r24, 0x61	; 97
 424:	91 50       	subi	r25, 0x01	; 1
 426:	20 40       	sbci	r18, 0x00	; 0
 428:	80 40       	sbci	r24, 0x00	; 0
 42a:	e1 f7       	brne	.-8      	; 0x424 <__LOCK_REGION_LENGTH__+0x24>
 42c:	00 c0       	rjmp	.+0      	; 0x42e <__LOCK_REGION_LENGTH__+0x2e>
 42e:	00 00       	nop
	_delay_ms(2000);	
	lcd_send_cmd(CLEAR_DISPLAY);
 430:	81 e0       	ldi	r24, 0x01	; 1
 432:	0e 94 53 01 	call	0x2a6	; 0x2a6 <lcd_send_cmd>
	
	LED_check();
 436:	0e 94 97 00 	call	0x12e	; 0x12e <LED_check>
	
	sei(); // enable global interrupts
 43a:	78 94       	sei
	
	mirf_config();
 43c:	0e 94 cf 02 	call	0x59e	; 0x59e <mirf_config>

    while (1) 
    {
		// to UART
		println_0("Waiting for data...;");
 440:	80 e2       	ldi	r24, 0x20	; 32
 442:	92 e0       	ldi	r25, 0x02	; 2
 444:	0e 94 72 03 	call	0x6e4	; 0x6e4 <println_0>
		// to LCD
		lcd_send_cmd(CLEAR_DISPLAY);
 448:	81 e0       	ldi	r24, 0x01	; 1
 44a:	0e 94 53 01 	call	0x2a6	; 0x2a6 <lcd_send_cmd>
 44e:	8f ed       	ldi	r24, 0xDF	; 223
 450:	9e e2       	ldi	r25, 0x2E	; 46
 452:	01 97       	sbiw	r24, 0x01	; 1
 454:	f1 f7       	brne	.-4      	; 0x452 <__LOCK_REGION_LENGTH__+0x52>
 456:	00 c0       	rjmp	.+0      	; 0x458 <__LOCK_REGION_LENGTH__+0x58>
 458:	00 00       	nop
		_delay_ms(3);
		lcd_set_cursor(1,1);
 45a:	61 e0       	ldi	r22, 0x01	; 1
 45c:	81 e0       	ldi	r24, 0x01	; 1
 45e:	0e 94 97 01 	call	0x32e	; 0x32e <lcd_set_cursor>
		lcd_print("Waiting for data");
 462:	85 e3       	ldi	r24, 0x35	; 53
 464:	92 e0       	ldi	r25, 0x02	; 2
 466:	0e 94 b3 01 	call	0x366	; 0x366 <lcd_print>
 46a:	8f ed       	ldi	r24, 0xDF	; 223
 46c:	9e e2       	ldi	r25, 0x2E	; 46
 46e:	01 97       	sbiw	r24, 0x01	; 1
 470:	f1 f7       	brne	.-4      	; 0x46e <__LOCK_REGION_LENGTH__+0x6e>
 472:	00 c0       	rjmp	.+0      	; 0x474 <__LOCK_REGION_LENGTH__+0x74>
 474:	00 00       	nop
		_delay_ms(3);
		
		// wait for data
		while(!mirf_data_ready())
		{
			TOGGLE_LED1; // flash LED while waiting for data
 476:	cb e0       	ldi	r28, 0x0B	; 11
 478:	d1 e0       	ldi	r29, 0x01	; 1
 47a:	11 e0       	ldi	r17, 0x01	; 1
 47c:	0c c0       	rjmp	.+24     	; 0x496 <__LOCK_REGION_LENGTH__+0x96>
 47e:	88 81       	ld	r24, Y
 480:	81 27       	eor	r24, r17
 482:	88 83       	st	Y, r24
 484:	9f ef       	ldi	r25, 0xFF	; 255
 486:	21 ee       	ldi	r18, 0xE1	; 225
 488:	84 e0       	ldi	r24, 0x04	; 4
 48a:	91 50       	subi	r25, 0x01	; 1
 48c:	20 40       	sbci	r18, 0x00	; 0
 48e:	80 40       	sbci	r24, 0x00	; 0
 490:	e1 f7       	brne	.-8      	; 0x48a <__LOCK_REGION_LENGTH__+0x8a>
 492:	00 c0       	rjmp	.+0      	; 0x494 <__LOCK_REGION_LENGTH__+0x94>
 494:	00 00       	nop
		lcd_set_cursor(1,1);
		lcd_print("Waiting for data");
		_delay_ms(3);
		
		// wait for data
		while(!mirf_data_ready())
 496:	0e 94 b5 02 	call	0x56a	; 0x56a <mirf_data_ready>
 49a:	88 23       	and	r24, r24
 49c:	81 f3       	breq	.-32     	; 0x47e <__LOCK_REGION_LENGTH__+0x7e>
		{
			TOGGLE_LED1; // flash LED while waiting for data
			_delay_ms(100);
		}
		LED1_ON; // turn on LED when data is received
 49e:	eb e0       	ldi	r30, 0x0B	; 11
 4a0:	f1 e0       	ldi	r31, 0x01	; 1
 4a2:	80 81       	ld	r24, Z
 4a4:	81 60       	ori	r24, 0x01	; 1
 4a6:	80 83       	st	Z, r24
		
		mirf_get_data(buffer);
 4a8:	80 e0       	ldi	r24, 0x00	; 0
 4aa:	92 e0       	ldi	r25, 0x02	; 2
 4ac:	0e 94 e5 02 	call	0x5ca	; 0x5ca <mirf_get_data>

		// send to UART
		print_0("Data received: ;");
 4b0:	86 e4       	ldi	r24, 0x46	; 70
 4b2:	92 e0       	ldi	r25, 0x02	; 2
 4b4:	0e 94 4f 03 	call	0x69e	; 0x69e <print_0>
		print_char_0(buffer[0]);
 4b8:	c0 e0       	ldi	r28, 0x00	; 0
 4ba:	d2 e0       	ldi	r29, 0x02	; 2
 4bc:	88 81       	ld	r24, Y
 4be:	0e 94 4c 03 	call	0x698	; 0x698 <print_char_0>
		print_char_0(',');
 4c2:	8c e2       	ldi	r24, 0x2C	; 44
 4c4:	0e 94 4c 03 	call	0x698	; 0x698 <print_char_0>
		print_char_0(' ');
 4c8:	80 e2       	ldi	r24, 0x20	; 32
 4ca:	0e 94 4c 03 	call	0x698	; 0x698 <print_char_0>
		print_char_0(buffer[1]);
 4ce:	89 81       	ldd	r24, Y+1	; 0x01
 4d0:	0e 94 4c 03 	call	0x698	; 0x698 <print_char_0>
		print_char_0(NL);
 4d4:	8a e0       	ldi	r24, 0x0A	; 10
 4d6:	0e 94 4c 03 	call	0x698	; 0x698 <print_char_0>
		
		// send to LCD
		lcd_send_cmd(CLEAR_DISPLAY);
 4da:	81 e0       	ldi	r24, 0x01	; 1
 4dc:	0e 94 53 01 	call	0x2a6	; 0x2a6 <lcd_send_cmd>
 4e0:	8f ed       	ldi	r24, 0xDF	; 223
 4e2:	9e e2       	ldi	r25, 0x2E	; 46
 4e4:	01 97       	sbiw	r24, 0x01	; 1
 4e6:	f1 f7       	brne	.-4      	; 0x4e4 <__LOCK_REGION_LENGTH__+0xe4>
 4e8:	00 c0       	rjmp	.+0      	; 0x4ea <__LOCK_REGION_LENGTH__+0xea>
 4ea:	00 00       	nop
		_delay_ms(3);
		lcd_set_cursor(1,1);
 4ec:	61 e0       	ldi	r22, 0x01	; 1
 4ee:	81 e0       	ldi	r24, 0x01	; 1
 4f0:	0e 94 97 01 	call	0x32e	; 0x32e <lcd_set_cursor>
		lcd_print("Data received:");
 4f4:	87 e5       	ldi	r24, 0x57	; 87
 4f6:	92 e0       	ldi	r25, 0x02	; 2
 4f8:	0e 94 b3 01 	call	0x366	; 0x366 <lcd_print>
 4fc:	8f ed       	ldi	r24, 0xDF	; 223
 4fe:	9e e2       	ldi	r25, 0x2E	; 46
 500:	01 97       	sbiw	r24, 0x01	; 1
 502:	f1 f7       	brne	.-4      	; 0x500 <__LOCK_REGION_LENGTH__+0x100>
 504:	00 c0       	rjmp	.+0      	; 0x506 <__LOCK_REGION_LENGTH__+0x106>
 506:	00 00       	nop
		_delay_ms(3);
		lcd_set_cursor(2,1);
 508:	61 e0       	ldi	r22, 0x01	; 1
 50a:	82 e0       	ldi	r24, 0x02	; 2
 50c:	0e 94 97 01 	call	0x32e	; 0x32e <lcd_set_cursor>
		lcd_print_int(buffer[0]);
 510:	88 81       	ld	r24, Y
 512:	90 e0       	ldi	r25, 0x00	; 0
 514:	0e 94 c9 01 	call	0x392	; 0x392 <lcd_print_int>
 518:	8f ed       	ldi	r24, 0xDF	; 223
 51a:	9e e2       	ldi	r25, 0x2E	; 46
 51c:	01 97       	sbiw	r24, 0x01	; 1
 51e:	f1 f7       	brne	.-4      	; 0x51c <__LOCK_REGION_LENGTH__+0x11c>
 520:	00 c0       	rjmp	.+0      	; 0x522 <__LOCK_REGION_LENGTH__+0x122>
 522:	00 00       	nop
		_delay_ms(3);
		lcd_print(", ");
 524:	86 e6       	ldi	r24, 0x66	; 102
 526:	92 e0       	ldi	r25, 0x02	; 2
 528:	0e 94 b3 01 	call	0x366	; 0x366 <lcd_print>
 52c:	8f ed       	ldi	r24, 0xDF	; 223
 52e:	9e e2       	ldi	r25, 0x2E	; 46
 530:	01 97       	sbiw	r24, 0x01	; 1
 532:	f1 f7       	brne	.-4      	; 0x530 <__LOCK_REGION_LENGTH__+0x130>
 534:	00 c0       	rjmp	.+0      	; 0x536 <__LOCK_REGION_LENGTH__+0x136>
 536:	00 00       	nop
		_delay_ms(3);
		lcd_print_int(buffer[1]);
 538:	89 81       	ldd	r24, Y+1	; 0x01
 53a:	90 e0       	ldi	r25, 0x00	; 0
 53c:	0e 94 c9 01 	call	0x392	; 0x392 <lcd_print_int>
 540:	8f ed       	ldi	r24, 0xDF	; 223
 542:	9e e2       	ldi	r25, 0x2E	; 46
 544:	01 97       	sbiw	r24, 0x01	; 1
 546:	f1 f7       	brne	.-4      	; 0x544 <__LOCK_REGION_LENGTH__+0x144>
 548:	00 c0       	rjmp	.+0      	; 0x54a <__LOCK_REGION_LENGTH__+0x14a>
 54a:	00 00       	nop
 54c:	ff cf       	rjmp	.-2      	; 0x54c <__LOCK_REGION_LENGTH__+0x14c>

0000054e <mirf_init>:
	spi_send_char(W_TX_PAYLOAD); // Write cmd to write payload
	spi_send_bytes(value, len);  // Write payload
	mirf_CSN_hi;                 // Pull up chip select

	mirf_CE_hi; // Start transmission
}
 54e:	54 9a       	sbi	0x0a, 4	; 10
 550:	20 9a       	sbi	0x04, 0	; 4
 552:	5c 98       	cbi	0x0b, 4	; 11
 554:	28 9a       	sbi	0x05, 0	; 5
 556:	e8 98       	cbi	0x1d, 0	; 29
 558:	e9 e6       	ldi	r30, 0x69	; 105
 55a:	f0 e0       	ldi	r31, 0x00	; 0
 55c:	80 81       	ld	r24, Z
 55e:	82 60       	ori	r24, 0x02	; 2
 560:	80 83       	st	Z, r24
 562:	e8 9a       	sbi	0x1d, 0	; 29
 564:	0e 94 98 03 	call	0x730	; 0x730 <spi_master_initialize>
 568:	08 95       	ret

0000056a <mirf_data_ready>:
 56a:	80 91 80 02 	lds	r24, 0x0280	; 0x800280 <__data_end>
 56e:	81 11       	cpse	r24, r1
 570:	07 c0       	rjmp	.+14     	; 0x580 <mirf_data_ready+0x16>
 572:	28 98       	cbi	0x05, 0	; 5
 574:	8f ef       	ldi	r24, 0xFF	; 255
 576:	0e 94 a3 03 	call	0x746	; 0x746 <spi_exchange_char>
 57a:	28 9a       	sbi	0x05, 0	; 5
 57c:	80 74       	andi	r24, 0x40	; 64
 57e:	08 95       	ret
 580:	80 e0       	ldi	r24, 0x00	; 0
 582:	08 95       	ret

00000584 <mirf_config_register>:
 584:	cf 93       	push	r28
 586:	c6 2f       	mov	r28, r22
 588:	28 98       	cbi	0x05, 0	; 5
 58a:	8f 71       	andi	r24, 0x1F	; 31
 58c:	80 62       	ori	r24, 0x20	; 32
 58e:	0e 94 9e 03 	call	0x73c	; 0x73c <spi_send_char>
 592:	8c 2f       	mov	r24, r28
 594:	0e 94 9e 03 	call	0x73c	; 0x73c <spi_send_char>
 598:	28 9a       	sbi	0x05, 0	; 5
 59a:	cf 91       	pop	r28
 59c:	08 95       	ret

0000059e <mirf_config>:
 59e:	62 e0       	ldi	r22, 0x02	; 2
 5a0:	85 e0       	ldi	r24, 0x05	; 5
 5a2:	0e 94 c2 02 	call	0x584	; 0x584 <mirf_config_register>
 5a6:	8f e8       	ldi	r24, 0x8F	; 143
 5a8:	91 e0       	ldi	r25, 0x01	; 1
 5aa:	01 97       	sbiw	r24, 0x01	; 1
 5ac:	f1 f7       	brne	.-4      	; 0x5aa <mirf_config+0xc>
 5ae:	00 c0       	rjmp	.+0      	; 0x5b0 <mirf_config+0x12>
 5b0:	00 00       	nop
 5b2:	60 e1       	ldi	r22, 0x10	; 16
 5b4:	81 e1       	ldi	r24, 0x11	; 17
 5b6:	0e 94 c2 02 	call	0x584	; 0x584 <mirf_config_register>
 5ba:	10 92 80 02 	sts	0x0280, r1	; 0x800280 <__data_end>
 5be:	6b e4       	ldi	r22, 0x4B	; 75
 5c0:	80 e0       	ldi	r24, 0x00	; 0
 5c2:	0e 94 c2 02 	call	0x584	; 0x584 <mirf_config_register>
 5c6:	5c 9a       	sbi	0x0b, 4	; 11
 5c8:	08 95       	ret

000005ca <mirf_get_data>:
 5ca:	cf 93       	push	r28
 5cc:	df 93       	push	r29
 5ce:	ec 01       	movw	r28, r24
 5d0:	28 98       	cbi	0x05, 0	; 5
 5d2:	81 e6       	ldi	r24, 0x61	; 97
 5d4:	0e 94 9e 03 	call	0x73c	; 0x73c <spi_send_char>
 5d8:	40 e1       	ldi	r20, 0x10	; 16
 5da:	be 01       	movw	r22, r28
 5dc:	ce 01       	movw	r24, r28
 5de:	0e 94 a9 03 	call	0x752	; 0x752 <spi_exchange_bytes>
 5e2:	28 9a       	sbi	0x05, 0	; 5
 5e4:	60 e4       	ldi	r22, 0x40	; 64
 5e6:	87 e0       	ldi	r24, 0x07	; 7
 5e8:	0e 94 c2 02 	call	0x584	; 0x584 <mirf_config_register>
 5ec:	df 91       	pop	r29
 5ee:	cf 91       	pop	r28
 5f0:	08 95       	ret

000005f2 <__vector_1>:

ISR(INT0_vect) // Interrupt handler
{
 5f2:	1f 92       	push	r1
 5f4:	0f 92       	push	r0
 5f6:	0f b6       	in	r0, 0x3f	; 63
 5f8:	0f 92       	push	r0
 5fa:	11 24       	eor	r1, r1
 5fc:	2f 93       	push	r18
 5fe:	3f 93       	push	r19
 600:	4f 93       	push	r20
 602:	5f 93       	push	r21
 604:	6f 93       	push	r22
 606:	7f 93       	push	r23
 608:	8f 93       	push	r24
 60a:	9f 93       	push	r25
 60c:	af 93       	push	r26
 60e:	bf 93       	push	r27
 610:	cf 93       	push	r28
 612:	ef 93       	push	r30
 614:	ff 93       	push	r31
	char status;
	// If still in transmitting mode then finish transmission
	if (PTX)
 616:	80 91 80 02 	lds	r24, 0x0280	; 0x800280 <__data_end>
 61a:	88 23       	and	r24, r24
 61c:	59 f1       	breq	.+86     	; 0x674 <__vector_1+0x82>
	{

		// Read MiRF status
		mirf_CSN_lo;                     // Pull down chip select
 61e:	28 98       	cbi	0x05, 0	; 5
		status = spi_exchange_char(NOP); // Read status register
 620:	8f ef       	ldi	r24, 0xFF	; 255
 622:	0e 94 a3 03 	call	0x746	; 0x746 <spi_exchange_char>
 626:	c8 2f       	mov	r28, r24
		mirf_CSN_hi;                     // Pull up chip select
 628:	28 9a       	sbi	0x05, 0	; 5

		lcd_set_cursor(2,1);
 62a:	61 e0       	ldi	r22, 0x01	; 1
 62c:	82 e0       	ldi	r24, 0x02	; 2
 62e:	0e 94 97 01 	call	0x32e	; 0x32e <lcd_set_cursor>
		lcd_print("STAT: ");
 632:	89 e7       	ldi	r24, 0x79	; 121
 634:	92 e0       	ldi	r25, 0x02	; 2
 636:	0e 94 b3 01 	call	0x366	; 0x366 <lcd_print>
		lcd_set_cursor(2,7);
 63a:	67 e0       	ldi	r22, 0x07	; 7
 63c:	82 e0       	ldi	r24, 0x02	; 2
 63e:	0e 94 97 01 	call	0x32e	; 0x32e <lcd_set_cursor>
		lcd_print_int(status);
 642:	8c 2f       	mov	r24, r28
 644:	90 e0       	ldi	r25, 0x00	; 0
 646:	0e 94 c9 01 	call	0x392	; 0x392 <lcd_print_int>
 64a:	2f ef       	ldi	r18, 0xFF	; 255
 64c:	83 ed       	ldi	r24, 0xD3	; 211
 64e:	90 e3       	ldi	r25, 0x30	; 48
 650:	21 50       	subi	r18, 0x01	; 1
 652:	80 40       	sbci	r24, 0x00	; 0
 654:	90 40       	sbci	r25, 0x00	; 0
 656:	e1 f7       	brne	.-8      	; 0x650 <__vector_1+0x5e>
 658:	00 c0       	rjmp	.+0      	; 0x65a <__vector_1+0x68>
 65a:	00 00       	nop
		_delay_ms(1000);
		
		mirf_CE_lo; // Deactivate transreceiver
 65c:	5c 98       	cbi	0x0b, 4	; 11
		RX_POWERUP; // Power up in receiving mode
 65e:	6b e4       	ldi	r22, 0x4B	; 75
 660:	80 e0       	ldi	r24, 0x00	; 0
 662:	0e 94 c2 02 	call	0x584	; 0x584 <mirf_config_register>
		mirf_CE_hi; // Listening for pakets
 666:	5c 9a       	sbi	0x0b, 4	; 11
		PTX = 0;    // Set to receiving mode
 668:	10 92 80 02 	sts	0x0280, r1	; 0x800280 <__data_end>

		// Reset status register for further interaction
		mirf_config_register(STATUS, (1 << TX_DS) | (1 << MAX_RT)); // Reset status register
 66c:	60 e3       	ldi	r22, 0x30	; 48
 66e:	87 e0       	ldi	r24, 0x07	; 7
 670:	0e 94 c2 02 	call	0x584	; 0x584 <mirf_config_register>
	}
 674:	ff 91       	pop	r31
 676:	ef 91       	pop	r30
 678:	cf 91       	pop	r28
 67a:	bf 91       	pop	r27
 67c:	af 91       	pop	r26
 67e:	9f 91       	pop	r25
 680:	8f 91       	pop	r24
 682:	7f 91       	pop	r23
 684:	6f 91       	pop	r22
 686:	5f 91       	pop	r21
 688:	4f 91       	pop	r20
 68a:	3f 91       	pop	r19
 68c:	2f 91       	pop	r18
 68e:	0f 90       	pop	r0
 690:	0f be       	out	0x3f, r0	; 63
 692:	0f 90       	pop	r0
 694:	1f 90       	pop	r1
 696:	18 95       	reti

00000698 <print_char_0>:
#include "print.h"
#include "usart.h"

void print_char_0(char character)
{
	usart0_send_char(character);
 698:	0e 94 bc 03 	call	0x778	; 0x778 <usart0_send_char>
 69c:	08 95       	ret

0000069e <print_0>:
}


void print_0(char char_array[]) // prints to usart
{
 69e:	0f 93       	push	r16
 6a0:	1f 93       	push	r17
 6a2:	cf 93       	push	r28
 6a4:	df 93       	push	r29
 6a6:	fc 01       	movw	r30, r24
	for (int i=0; i<200 ; i++)
	{
		if ( (char_array[i] == NL) || (char_array[i] == EOT) )
 6a8:	80 81       	ld	r24, Z
 6aa:	8a 30       	cpi	r24, 0x0A	; 10
 6ac:	b1 f0       	breq	.+44     	; 0x6da <print_0+0x3c>
 6ae:	8b 33       	cpi	r24, 0x3B	; 59
 6b0:	61 f4       	brne	.+24     	; 0x6ca <print_0+0x2c>
 6b2:	13 c0       	rjmp	.+38     	; 0x6da <print_0+0x3c>
 6b4:	89 91       	ld	r24, Y+
 6b6:	8a 30       	cpi	r24, 0x0A	; 10
 6b8:	81 f0       	breq	.+32     	; 0x6da <print_0+0x3c>
 6ba:	8b 33       	cpi	r24, 0x3B	; 59
 6bc:	71 f0       	breq	.+28     	; 0x6da <print_0+0x3c>
			break;
		usart0_send_char(char_array[i]);
 6be:	0e 94 bc 03 	call	0x778	; 0x778 <usart0_send_char>
}


void print_0(char char_array[]) // prints to usart
{
	for (int i=0; i<200 ; i++)
 6c2:	0c 17       	cp	r16, r28
 6c4:	1d 07       	cpc	r17, r29
 6c6:	b1 f7       	brne	.-20     	; 0x6b4 <print_0+0x16>
 6c8:	08 c0       	rjmp	.+16     	; 0x6da <print_0+0x3c>
 6ca:	8f 01       	movw	r16, r30
	{
		if ( (char_array[i] == NL) || (char_array[i] == EOT) )
			break;
		usart0_send_char(char_array[i]);
 6cc:	0e 94 bc 03 	call	0x778	; 0x778 <usart0_send_char>
 6d0:	e8 01       	movw	r28, r16
 6d2:	21 96       	adiw	r28, 0x01	; 1
 6d4:	08 53       	subi	r16, 0x38	; 56
 6d6:	1f 4f       	sbci	r17, 0xFF	; 255
 6d8:	ed cf       	rjmp	.-38     	; 0x6b4 <print_0+0x16>
	}
}
 6da:	df 91       	pop	r29
 6dc:	cf 91       	pop	r28
 6de:	1f 91       	pop	r17
 6e0:	0f 91       	pop	r16
 6e2:	08 95       	ret

000006e4 <println_0>:

void println_0(char char_array[]) // prints to usart
{
 6e4:	0f 93       	push	r16
 6e6:	1f 93       	push	r17
 6e8:	cf 93       	push	r28
 6ea:	df 93       	push	r29
 6ec:	8c 01       	movw	r16, r24
	for (int i=0; i<200 ; i++)
	{
		if( (char_array[i] == NL) || (char_array[i] == EOT) )
 6ee:	fc 01       	movw	r30, r24
 6f0:	80 81       	ld	r24, Z
 6f2:	8a 30       	cpi	r24, 0x0A	; 10
 6f4:	69 f0       	breq	.+26     	; 0x710 <println_0+0x2c>
 6f6:	8b 33       	cpi	r24, 0x3B	; 59
 6f8:	79 f4       	brne	.+30     	; 0x718 <println_0+0x34>
 6fa:	0a c0       	rjmp	.+20     	; 0x710 <println_0+0x2c>
 6fc:	89 91       	ld	r24, Y+
 6fe:	8a 30       	cpi	r24, 0x0A	; 10
 700:	39 f0       	breq	.+14     	; 0x710 <println_0+0x2c>
 702:	8b 33       	cpi	r24, 0x3B	; 59
 704:	29 f0       	breq	.+10     	; 0x710 <println_0+0x2c>
			break;
		usart0_send_char(char_array[i]);
 706:	0e 94 bc 03 	call	0x778	; 0x778 <usart0_send_char>
	}
}

void println_0(char char_array[]) // prints to usart
{
	for (int i=0; i<200 ; i++)
 70a:	0c 17       	cp	r16, r28
 70c:	1d 07       	cpc	r17, r29
 70e:	b1 f7       	brne	.-20     	; 0x6fc <println_0+0x18>
		if( (char_array[i] == NL) || (char_array[i] == EOT) )
			break;
		usart0_send_char(char_array[i]);
		
	}
	usart0_send_char(0x0A); // NL
 710:	8a e0       	ldi	r24, 0x0A	; 10
 712:	0e 94 bc 03 	call	0x778	; 0x778 <usart0_send_char>
}
 716:	07 c0       	rjmp	.+14     	; 0x726 <println_0+0x42>
{
	for (int i=0; i<200 ; i++)
	{
		if( (char_array[i] == NL) || (char_array[i] == EOT) )
			break;
		usart0_send_char(char_array[i]);
 718:	0e 94 bc 03 	call	0x778	; 0x778 <usart0_send_char>
 71c:	e8 01       	movw	r28, r16
 71e:	21 96       	adiw	r28, 0x01	; 1
 720:	08 53       	subi	r16, 0x38	; 56
 722:	1f 4f       	sbci	r17, 0xFF	; 255
 724:	eb cf       	rjmp	.-42     	; 0x6fc <println_0+0x18>
		
	}
	usart0_send_char(0x0A); // NL
}
 726:	df 91       	pop	r29
 728:	cf 91       	pop	r28
 72a:	1f 91       	pop	r17
 72c:	0f 91       	pop	r16
 72e:	08 95       	ret

00000730 <spi_master_initialize>:

void spi_send_bytes(char *pdata, char bytes)
{
	int i;

	for (i = 0; i < bytes; i++)
 730:	84 b1       	in	r24, 0x04	; 4
 732:	87 60       	ori	r24, 0x07	; 7
 734:	84 b9       	out	0x04, r24	; 4
 736:	81 e5       	ldi	r24, 0x51	; 81
 738:	8c bd       	out	0x2c, r24	; 44
 73a:	08 95       	ret

0000073c <spi_send_char>:
 73c:	8e bd       	out	0x2e, r24	; 46
 73e:	0d b4       	in	r0, 0x2d	; 45
 740:	07 fe       	sbrs	r0, 7
 742:	fd cf       	rjmp	.-6      	; 0x73e <spi_send_char+0x2>
 744:	08 95       	ret

00000746 <spi_exchange_char>:
 746:	8e bd       	out	0x2e, r24	; 46
 748:	0d b4       	in	r0, 0x2d	; 45
 74a:	07 fe       	sbrs	r0, 7
 74c:	fd cf       	rjmp	.-6      	; 0x748 <spi_exchange_char+0x2>
 74e:	8e b5       	in	r24, 0x2e	; 46
 750:	08 95       	ret

00000752 <spi_exchange_bytes>:

void spi_exchange_bytes(char *mosi, char *miso, char bytes)
{
	int i;

	for (i = 0; i < bytes; i++)
 752:	44 23       	and	r20, r20
 754:	81 f0       	breq	.+32     	; 0x776 <spi_exchange_bytes+0x24>
 756:	fc 01       	movw	r30, r24
 758:	a6 2f       	mov	r26, r22
 75a:	b7 2f       	mov	r27, r23
 75c:	9c 01       	movw	r18, r24
 75e:	24 0f       	add	r18, r20
 760:	31 1d       	adc	r19, r1
	{
		SPDR = mosi[i]; // start transmission
 762:	91 91       	ld	r25, Z+
 764:	9e bd       	out	0x2e, r25	; 46

		while (!(SPSR & (1 << SPIF)))
 766:	0d b4       	in	r0, 0x2d	; 45
 768:	07 fe       	sbrs	r0, 7
 76a:	fd cf       	rjmp	.-6      	; 0x766 <spi_exchange_bytes+0x14>
		; // wait for transmission complete
		miso[i] = SPDR;
 76c:	9e b5       	in	r25, 0x2e	; 46
 76e:	9d 93       	st	X+, r25

void spi_exchange_bytes(char *mosi, char *miso, char bytes)
{
	int i;

	for (i = 0; i < bytes; i++)
 770:	e2 17       	cp	r30, r18
 772:	f3 07       	cpc	r31, r19
 774:	b1 f7       	brne	.-20     	; 0x762 <spi_exchange_bytes+0x10>
 776:	08 95       	ret

00000778 <usart0_send_char>:
unsigned char usart0_receive_char()
{
	while (!(UCSR0A & (1 << RXC0))) // RXCn is set when there are unread data in the receive buffer and cleared when the receive buffer is empty
	;
	return UDR0;
}
 778:	e0 ec       	ldi	r30, 0xC0	; 192
 77a:	f0 e0       	ldi	r31, 0x00	; 0
 77c:	90 81       	ld	r25, Z
 77e:	95 ff       	sbrs	r25, 5
 780:	fd cf       	rjmp	.-6      	; 0x77c <usart0_send_char+0x4>
 782:	80 93 c6 00 	sts	0x00C6, r24	; 0x8000c6 <__TEXT_REGION_LENGTH__+0x7e00c6>
 786:	08 95       	ret

00000788 <setup_usart0>:


void setup_usart0(unsigned char BR)
{
	UCSR0B = (1 << TXEN0) | (1 << RXEN0); // enable USART1
 788:	98 e1       	ldi	r25, 0x18	; 24
 78a:	90 93 c1 00 	sts	0x00C1, r25	; 0x8000c1 <__TEXT_REGION_LENGTH__+0x7e00c1>
	UCSR0C = (1 << UCSZ01) | (1 << UCSZ00);               // 8-bit character size
 78e:	96 e0       	ldi	r25, 0x06	; 6
 790:	90 93 c2 00 	sts	0x00C2, r25	; 0x8000c2 <__TEXT_REGION_LENGTH__+0x7e00c2>
	UBRR0L = BR;                                        // 51 for 9600 baud rate at 8Mhz
 794:	80 93 c4 00 	sts	0x00C4, r24	; 0x8000c4 <__TEXT_REGION_LENGTH__+0x7e00c4>
 798:	08 95       	ret

0000079a <__divmodhi4>:
 79a:	97 fb       	bst	r25, 7
 79c:	07 2e       	mov	r0, r23
 79e:	16 f4       	brtc	.+4      	; 0x7a4 <__divmodhi4+0xa>
 7a0:	00 94       	com	r0
 7a2:	07 d0       	rcall	.+14     	; 0x7b2 <__divmodhi4_neg1>
 7a4:	77 fd       	sbrc	r23, 7
 7a6:	09 d0       	rcall	.+18     	; 0x7ba <__divmodhi4_neg2>
 7a8:	0e 94 e1 03 	call	0x7c2	; 0x7c2 <__udivmodhi4>
 7ac:	07 fc       	sbrc	r0, 7
 7ae:	05 d0       	rcall	.+10     	; 0x7ba <__divmodhi4_neg2>
 7b0:	3e f4       	brtc	.+14     	; 0x7c0 <__divmodhi4_exit>

000007b2 <__divmodhi4_neg1>:
 7b2:	90 95       	com	r25
 7b4:	81 95       	neg	r24
 7b6:	9f 4f       	sbci	r25, 0xFF	; 255
 7b8:	08 95       	ret

000007ba <__divmodhi4_neg2>:
 7ba:	70 95       	com	r23
 7bc:	61 95       	neg	r22
 7be:	7f 4f       	sbci	r23, 0xFF	; 255

000007c0 <__divmodhi4_exit>:
 7c0:	08 95       	ret

000007c2 <__udivmodhi4>:
 7c2:	aa 1b       	sub	r26, r26
 7c4:	bb 1b       	sub	r27, r27
 7c6:	51 e1       	ldi	r21, 0x11	; 17
 7c8:	07 c0       	rjmp	.+14     	; 0x7d8 <__udivmodhi4_ep>

000007ca <__udivmodhi4_loop>:
 7ca:	aa 1f       	adc	r26, r26
 7cc:	bb 1f       	adc	r27, r27
 7ce:	a6 17       	cp	r26, r22
 7d0:	b7 07       	cpc	r27, r23
 7d2:	10 f0       	brcs	.+4      	; 0x7d8 <__udivmodhi4_ep>
 7d4:	a6 1b       	sub	r26, r22
 7d6:	b7 0b       	sbc	r27, r23

000007d8 <__udivmodhi4_ep>:
 7d8:	88 1f       	adc	r24, r24
 7da:	99 1f       	adc	r25, r25
 7dc:	5a 95       	dec	r21
 7de:	a9 f7       	brne	.-22     	; 0x7ca <__udivmodhi4_loop>
 7e0:	80 95       	com	r24
 7e2:	90 95       	com	r25
 7e4:	bc 01       	movw	r22, r24
 7e6:	cd 01       	movw	r24, r26
 7e8:	08 95       	ret

000007ea <__itoa_ncheck>:
 7ea:	bb 27       	eor	r27, r27
 7ec:	4a 30       	cpi	r20, 0x0A	; 10
 7ee:	31 f4       	brne	.+12     	; 0x7fc <__itoa_ncheck+0x12>
 7f0:	99 23       	and	r25, r25
 7f2:	22 f4       	brpl	.+8      	; 0x7fc <__itoa_ncheck+0x12>
 7f4:	bd e2       	ldi	r27, 0x2D	; 45
 7f6:	90 95       	com	r25
 7f8:	81 95       	neg	r24
 7fa:	9f 4f       	sbci	r25, 0xFF	; 255
 7fc:	0c 94 01 04 	jmp	0x802	; 0x802 <__utoa_common>

00000800 <__utoa_ncheck>:
 800:	bb 27       	eor	r27, r27

00000802 <__utoa_common>:
 802:	fb 01       	movw	r30, r22
 804:	55 27       	eor	r21, r21
 806:	aa 27       	eor	r26, r26
 808:	88 0f       	add	r24, r24
 80a:	99 1f       	adc	r25, r25
 80c:	aa 1f       	adc	r26, r26
 80e:	a4 17       	cp	r26, r20
 810:	10 f0       	brcs	.+4      	; 0x816 <__utoa_common+0x14>
 812:	a4 1b       	sub	r26, r20
 814:	83 95       	inc	r24
 816:	50 51       	subi	r21, 0x10	; 16
 818:	b9 f7       	brne	.-18     	; 0x808 <__utoa_common+0x6>
 81a:	a0 5d       	subi	r26, 0xD0	; 208
 81c:	aa 33       	cpi	r26, 0x3A	; 58
 81e:	08 f0       	brcs	.+2      	; 0x822 <__utoa_common+0x20>
 820:	a9 5d       	subi	r26, 0xD9	; 217
 822:	a1 93       	st	Z+, r26
 824:	00 97       	sbiw	r24, 0x00	; 0
 826:	79 f7       	brne	.-34     	; 0x806 <__utoa_common+0x4>
 828:	b1 11       	cpse	r27, r1
 82a:	b1 93       	st	Z+, r27
 82c:	11 92       	st	Z+, r1
 82e:	cb 01       	movw	r24, r22
 830:	0c 94 1a 04 	jmp	0x834	; 0x834 <strrev>

00000834 <strrev>:
 834:	dc 01       	movw	r26, r24
 836:	fc 01       	movw	r30, r24
 838:	67 2f       	mov	r22, r23
 83a:	71 91       	ld	r23, Z+
 83c:	77 23       	and	r23, r23
 83e:	e1 f7       	brne	.-8      	; 0x838 <strrev+0x4>
 840:	32 97       	sbiw	r30, 0x02	; 2
 842:	04 c0       	rjmp	.+8      	; 0x84c <strrev+0x18>
 844:	7c 91       	ld	r23, X
 846:	6d 93       	st	X+, r22
 848:	70 83       	st	Z, r23
 84a:	62 91       	ld	r22, -Z
 84c:	ae 17       	cp	r26, r30
 84e:	bf 07       	cpc	r27, r31
 850:	c8 f3       	brcs	.-14     	; 0x844 <strrev+0x10>
 852:	08 95       	ret

00000854 <_exit>:
 854:	f8 94       	cli

00000856 <__stop_program>:
 856:	ff cf       	rjmp	.-2      	; 0x856 <__stop_program>
